; Function Attrs: mustprogress uwtable
define void @_ZN10duckdb_hll11hll_destroyEPNS_4robjE(ptr noundef captures(address_is_null) %0) local_unnamed_addr #3 {
  %.not = icmp eq ptr %0, null
  br i1 %.not, label %4, label %2

2:                                                ; preds = %1
  %3 = load ptr, ptr %0, align 8, !tbaa !14
  tail call void @_ZN10duckdb_hll7sdsfreeEPc(ptr noundef %3)
  tail call void @free(ptr noundef nonnull %0) #21
  br label %4

4:                                                ; preds = %1, %2
  ret void
}